target datalayout = "e-m:e-p270:32:32-p271:32:32-p272:64:64-i64:64-i128:128-f80:128-n8:16:32:64-S128"
target triple = "x86_64-pc-linux-gnu"

%struct.expert_tapdata_t = type { [5 x ptr], ptr }

; Function Attrs: null_pointer_is_valid sspstrong uwtable
define internal void @expert_tapdata_free(ptr noundef %0) #0 {
  %2 = alloca ptr, align 8
  %3 = alloca i32, align 4
  store ptr %0, ptr %2, align 8
  call void @llvm.lifetime.start.p0(i64 4, ptr %3) #9
  store i32 0, ptr %3, align 4
  br label %4

4:                                                ; preds = %16, %1
  %5 = load i32, ptr %3, align 4
  %6 = icmp slt i32 %5, 5
  br i1 %6, label %8, label %7

7:                                                ; preds = %4
  call void @llvm.lifetime.end.p0(i64 4, ptr %3) #9
  br label %19

8:                                                ; preds = %4
  %9 = load ptr, ptr %2, align 8
  %10 = getelementptr inbounds nuw %struct.expert_tapdata_t, ptr %9, i32 0, i32 0
  %11 = load i32, ptr %3, align 4
  %12 = sext i32 %11 to i64
  %13 = getelementptr [5 x ptr], ptr %10, i64 0, i64 %12
  %14 = load ptr, ptr %13, align 8
  %15 = call ptr @g_array_free(ptr noundef %14, i32 noundef 1)
  br label %16

16:                                               ; preds = %8
  %17 = load i32, ptr %3, align 4
  %18 = add i32 %17, 1
  store i32 %18, ptr %3, align 4
  br label %4, !llvm.loop !11

19:                                               ; preds = %7
  %20 = load ptr, ptr %2, align 8
  %21 = getelementptr inbounds nuw %struct.expert_tapdata_t, ptr %20, i32 0, i32 1
  %22 = load ptr, ptr %21, align 8
  call void @g_string_chunk_free(ptr noundef %22)
  %23 = load ptr, ptr %2, align 8
  call void @g_free(ptr noundef %23)
  ret void
}