; Function Attrs: null_pointer_is_valid sspstrong uwtable
define internal void @expert_tapdata_free(ptr noundef %0) #0 {
  br label %5

2:                                                ; preds = %5
  %3 = getelementptr inbounds nuw i8, ptr %0, i64 40
  %4 = load ptr, ptr %3, align 8
  tail call void @g_string_chunk_free(ptr noundef %4)
  tail call void @g_free(ptr noundef %0)
  ret void

5:                                                ; preds = %1, %5
  %indvars.iv = phi i64 [ 0, %1 ], [ %indvars.iv.next, %5 ]
  %6 = getelementptr [5 x ptr], ptr %0, i64 0, i64 %indvars.iv
  %7 = load ptr, ptr %6, align 8
  %8 = tail call ptr @g_array_free(ptr noundef %7, i32 noundef 1)
  %indvars.iv.next = add nuw nsw i64 %indvars.iv, 1
  %exitcond.not = icmp eq i64 %indvars.iv.next, 5
  br i1 %exitcond.not, label %2, label %5, !llvm.loop !11
}